target datalayout = "e-m:e-p270:32:32-p271:32:32-p272:64:64-i64:64-i128:128-f80:128-n8:16:32:64-S128"
target triple = "x86_64-pc-linux-gnu"

; Function Attrs: inlinehint mustprogress nounwind uwtable
define internal noundef i32 @_ZN11duckdb_zstdL10MEM_swap32Ej(i32 noundef %0) #6 {
  %2 = alloca i32, align 4
  store i32 %0, ptr %2, align 4, !tbaa !11
  %3 = load i32, ptr %2, align 4, !tbaa !11
  %4 = call i32 @llvm.bswap.i32(i32 %3)
  ret i32 %4
}

; Function Attrs: inlinehint mustprogress nounwind uwtable
define internal void @_ZN11duckdb_zstdL11MEM_write32EPvj(ptr noundef %0, i32 noundef %1) #6 {
  %3 = alloca ptr, align 8
  %4 = alloca i32, align 4
  store ptr %0, ptr %3, align 8, !tbaa !3
  store i32 %1, ptr %4, align 4, !tbaa !11
  %5 = load i32, ptr %4, align 4, !tbaa !11
  %6 = load ptr, ptr %3, align 8, !tbaa !3
  store i32 %5, ptr %6, align 1, !tbaa !11
  ret void
}

; Function Attrs: inlinehint mustprogress nounwind uwtable
define internal void @_ZN11duckdb_zstdL11MEM_write16EPvt(ptr noundef %0, i16 noundef zeroext %1) #6 {
  %3 = alloca ptr, align 8
  %4 = alloca i16, align 2
  store ptr %0, ptr %3, align 8, !tbaa !3
  store i16 %1, ptr %4, align 2, !tbaa !14
  %5 = load i16, ptr %4, align 2, !tbaa !14
  %6 = load ptr, ptr %3, align 8, !tbaa !3
  store i16 %5, ptr %6, align 1, !tbaa !14
  ret void
}

; Function Attrs: inlinehint mustprogress nounwind uwtable
define internal noundef i32 @_ZN11duckdb_zstdL18MEM_isLittleEndianEv() #6 {
  ret i32 1
}

; Function Attrs: inlinehint mustprogress uwtable
define internal void @_ZN11duckdb_zstdL13MEM_writeLE32EPvj(ptr noundef %0, i32 noundef %1) #2 {
  %3 = alloca ptr, align 8
  %4 = alloca i32, align 4
  store ptr %0, ptr %3, align 8, !tbaa !3
  store i32 %1, ptr %4, align 4, !tbaa !11
  %5 = call noundef i32 @_ZN11duckdb_zstdL18MEM_isLittleEndianEv()
  %6 = icmp ne i32 %5, 0
  br i1 %6, label %7, label %10

7:                                                ; preds = %2
  %8 = load ptr, ptr %3, align 8, !tbaa !3
  %9 = load i32, ptr %4, align 4, !tbaa !11
  call void @_ZN11duckdb_zstdL11MEM_write32EPvj(ptr noundef %8, i32 noundef %9)
  br label %14

10:                                               ; preds = %2
  %11 = load ptr, ptr %3, align 8, !tbaa !3
  %12 = load i32, ptr %4, align 4, !tbaa !11
  %13 = call noundef i32 @_ZN11duckdb_zstdL10MEM_swap32Ej(i32 noundef %12)
  call void @_ZN11duckdb_zstdL11MEM_write32EPvj(ptr noundef %11, i32 noundef %13)
  br label %14

14:                                               ; preds = %10, %7
  ret void
}

; Function Attrs: inlinehint mustprogress uwtable
define internal void @_ZN11duckdb_zstdL13MEM_writeLE16EPvt(ptr noundef %0, i16 noundef zeroext %1) #2 {
  %3 = alloca ptr, align 8
  %4 = alloca i16, align 2
  %5 = alloca ptr, align 8
  store ptr %0, ptr %3, align 8, !tbaa !3
  store i16 %1, ptr %4, align 2, !tbaa !14
  %6 = call noundef i32 @_ZN11duckdb_zstdL18MEM_isLittleEndianEv()
  %7 = icmp ne i32 %6, 0
  br i1 %7, label %8, label %11

8:                                                ; preds = %2
  %9 = load ptr, ptr %3, align 8, !tbaa !3
  %10 = load i16, ptr %4, align 2, !tbaa !14
  call void @_ZN11duckdb_zstdL11MEM_write16EPvt(ptr noundef %9, i16 noundef zeroext %10)
  br label %23

11:                                               ; preds = %2
  call void @llvm.lifetime.start.p0(i64 8, ptr %5) #8
  %12 = load ptr, ptr %3, align 8, !tbaa !3
  store ptr %12, ptr %5, align 8, !tbaa !9
  %13 = load i16, ptr %4, align 2, !tbaa !14
  %14 = trunc i16 %13 to i8
  %15 = load ptr, ptr %5, align 8, !tbaa !9
  %16 = getelementptr inbounds i8, ptr %15, i64 0
  store i8 %14, ptr %16, align 1, !tbaa !13
  %17 = load i16, ptr %4, align 2, !tbaa !14
  %18 = zext i16 %17 to i32
  %19 = ashr i32 %18, 8
  %20 = trunc i32 %19 to i8
  %21 = load ptr, ptr %5, align 8, !tbaa !9
  %22 = getelementptr inbounds i8, ptr %21, i64 1
  store i8 %20, ptr %22, align 1, !tbaa !13
  call void @llvm.lifetime.end.p0(i64 8, ptr %5) #8
  br label %23

23:                                               ; preds = %11, %8
  ret void
}

; Function Attrs: mustprogress uwtable
define noundef i64 @_ZN11duckdb_zstd29ZSTD_compressRleLiteralsBlockEPvmPKvm(ptr noundef %0, i64 noundef %1, ptr noundef %2, i64 noundef %3) #0 {
  %5 = alloca ptr, align 8
  %6 = alloca i64, align 8
  %7 = alloca ptr, align 8
  %8 = alloca i64, align 8
  %9 = alloca ptr, align 8
  %10 = alloca i32, align 4
  store ptr %0, ptr %5, align 8, !tbaa !3
  store i64 %1, ptr %6, align 8, !tbaa !7
  store ptr %2, ptr %7, align 8, !tbaa !3
  store i64 %3, ptr %8, align 8, !tbaa !7
  call void @llvm.lifetime.start.p0(i64 8, ptr %9) #8
  %11 = load ptr, ptr %5, align 8, !tbaa !3
  store ptr %11, ptr %9, align 8, !tbaa !9
  call void @llvm.lifetime.start.p0(i64 4, ptr %10) #8
  %12 = load i64, ptr %8, align 8, !tbaa !7
  %13 = icmp ugt i64 %12, 31
  %14 = zext i1 %13 to i32
  %15 = add nsw i32 1, %14
  %16 = load i64, ptr %8, align 8, !tbaa !7
  %17 = icmp ugt i64 %16, 4095
  %18 = zext i1 %17 to i32
  %19 = add nsw i32 %15, %18
  store i32 %19, ptr %10, align 4, !tbaa !11
  %20 = load i32, ptr %10, align 4, !tbaa !11
  switch i32 %20, label %40 [
    i32 1, label %21
    i32 2, label %28
    i32 3, label %34
  ]

21:                                               ; preds = %4
  %22 = load i64, ptr %8, align 8, !tbaa !7
  %23 = shl i64 %22, 3
  %24 = add i64 1, %23
  %25 = trunc i64 %24 to i8
  %26 = load ptr, ptr %9, align 8, !tbaa !9
  %27 = getelementptr inbounds i8, ptr %26, i64 0
  store i8 %25, ptr %27, align 1, !tbaa !13
  br label %41

28:                                               ; preds = %4
  %29 = load ptr, ptr %9, align 8, !tbaa !9
  %30 = load i64, ptr %8, align 8, !tbaa !7
  %31 = shl i64 %30, 4
  %32 = add i64 5, %31
  %33 = trunc i64 %32 to i16
  call void @_ZN11duckdb_zstdL13MEM_writeLE16EPvt(ptr noundef %29, i16 noundef zeroext %33)
  br label %41

34:                                               ; preds = %4
  %35 = load ptr, ptr %9, align 8, !tbaa !9
  %36 = load i64, ptr %8, align 8, !tbaa !7
  %37 = shl i64 %36, 4
  %38 = add i64 13, %37
  %39 = trunc i64 %38 to i32
  call void @_ZN11duckdb_zstdL13MEM_writeLE32EPvj(ptr noundef %35, i32 noundef %39)
  br label %41

40:                                               ; preds = %4
  br label %41

41:                                               ; preds = %40, %34, %28, %21
  %42 = load ptr, ptr %7, align 8, !tbaa !3
  %43 = load i8, ptr %42, align 1, !tbaa !13
  %44 = load ptr, ptr %9, align 8, !tbaa !9
  %45 = load i32, ptr %10, align 4, !tbaa !11
  %46 = zext i32 %45 to i64
  %47 = getelementptr inbounds nuw i8, ptr %44, i64 %46
  store i8 %43, ptr %47, align 1, !tbaa !13
  br label %48

48:                                               ; preds = %41
  br label %49

49:                                               ; preds = %48
  br label %50

50:                                               ; preds = %49
  %51 = load i32, ptr %10, align 4, !tbaa !11
  %52 = add i32 %51, 1
  %53 = zext i32 %52 to i64
  call void @llvm.lifetime.end.p0(i64 4, ptr %10) #8
  call void @llvm.lifetime.end.p0(i64 8, ptr %9) #8
  ret i64 %53
}