; Function Attrs: mustprogress nofree norecurse nosync nounwind willreturn memory(argmem: readwrite) uwtable
define noundef range(i64 2, 5) i64 @_ZN11duckdb_zstd29ZSTD_compressRleLiteralsBlockEPvmPKvm(ptr noundef writeonly captures(none) %0, i64 %1, ptr noundef readonly captures(none) %2, i64 noundef %3) local_unnamed_addr #0 {
  %5 = icmp ugt i64 %3, 31
  %6 = select i1 %5, i32 2, i32 1
  %7 = icmp ugt i64 %3, 4095
  %8 = zext i1 %7 to i32
  %9 = add nuw nsw i32 %6, %8
  switch i32 %9, label %default.unreachable15 [
    i32 1, label %10
    i32 2, label %13
    i32 3, label %16
  ]

10:                                               ; preds = %4
  %.tr14 = trunc i64 %3 to i8
  %11 = shl i8 %.tr14, 3
  %12 = or disjoint i8 %11, 1
  store i8 %12, ptr %0, align 1, !tbaa !3
  br label %19

13:                                               ; preds = %4
  %.tr13 = trunc i64 %3 to i16
  %14 = shl i16 %.tr13, 4
  %15 = or disjoint i16 %14, 5
  store i16 %15, ptr %0, align 1, !tbaa !6
  br label %19

16:                                               ; preds = %4
  %.tr = trunc i64 %3 to i32
  %17 = shl i32 %.tr, 4
  %18 = or disjoint i32 %17, 13
  store i32 %18, ptr %0, align 1, !tbaa !8
  br label %19

default.unreachable15:                            ; preds = %4
  unreachable

19:                                               ; preds = %16, %13, %10
  %20 = load i8, ptr %2, align 1, !tbaa !3
  %21 = zext nneg i32 %9 to i64
  %22 = getelementptr inbounds nuw i8, ptr %0, i64 %21
  store i8 %20, ptr %22, align 1, !tbaa !3
  %23 = add nuw nsw i32 %9, 1
  %24 = zext nneg i32 %23 to i64
  ret i64 %24
}